target datalayout = "e-m:e-p270:32:32-p271:32:32-p272:64:64-i64:64-i128:128-f80:128-n8:16:32:64-S128"
target triple = "x86_64-pc-linux-gnu"

%struct._tvbparse_wanted_t = type { i32, ptr, %union.anon, i32, i32, i32, ptr, ptr, ptr }
%union.anon = type { %struct.anon.2 }
%struct.anon.2 = type { ptr, ptr, ptr }

; Function Attrs: null_pointer_is_valid sspstrong uwtable
define ptr @tvbparse_some(i32 noundef %0, i32 noundef %1, i32 noundef %2, ptr noundef %3, ptr noundef %4, ptr noundef %5, ptr noundef %6) #0 {
  %8 = alloca i32, align 4
  %9 = alloca i32, align 4
  %10 = alloca i32, align 4
  %11 = alloca ptr, align 8
  %12 = alloca ptr, align 8
  %13 = alloca ptr, align 8
  %14 = alloca ptr, align 8
  %15 = alloca ptr, align 8
  store i32 %0, ptr %8, align 4
  store i32 %1, ptr %9, align 4
  store i32 %2, ptr %10, align 4
  store ptr %3, ptr %11, align 8
  store ptr %4, ptr %12, align 8
  store ptr %5, ptr %13, align 8
  store ptr %6, ptr %14, align 8
  call void @llvm.lifetime.start.p0(i64 8, ptr %15) #11
  %16 = call ptr @wmem_epan_scope()
  %17 = call noalias ptr @wmem_alloc0(ptr noundef %16, i64 noundef 80) #12
  store ptr %17, ptr %15, align 8
  br label %18

18:                                               ; preds = %7
  br label %19

19:                                               ; preds = %18
  br label %20

20:                                               ; preds = %19
  %21 = load ptr, ptr %15, align 8
  %22 = getelementptr inbounds nuw %struct._tvbparse_wanted_t, ptr %21, i32 0, i32 1
  store ptr @cond_some, ptr %22, align 8
  %23 = load i32, ptr %8, align 4
  %24 = load ptr, ptr %15, align 8
  %25 = getelementptr inbounds nuw %struct._tvbparse_wanted_t, ptr %24, i32 0, i32 0
  store i32 %23, ptr %25, align 8
  %26 = load i32, ptr %9, align 4
  %27 = load ptr, ptr %15, align 8
  %28 = getelementptr inbounds nuw %struct._tvbparse_wanted_t, ptr %27, i32 0, i32 4
  store i32 %26, ptr %28, align 4
  %29 = load i32, ptr %10, align 4
  %30 = load ptr, ptr %15, align 8
  %31 = getelementptr inbounds nuw %struct._tvbparse_wanted_t, ptr %30, i32 0, i32 5
  store i32 %29, ptr %31, align 8
  %32 = load ptr, ptr %11, align 8
  %33 = load ptr, ptr %15, align 8
  %34 = getelementptr inbounds nuw %struct._tvbparse_wanted_t, ptr %33, i32 0, i32 6
  store ptr %32, ptr %34, align 8
  %35 = load ptr, ptr %12, align 8
  %36 = load ptr, ptr %15, align 8
  %37 = getelementptr inbounds nuw %struct._tvbparse_wanted_t, ptr %36, i32 0, i32 7
  store ptr %35, ptr %37, align 8
  %38 = load ptr, ptr %13, align 8
  %39 = load ptr, ptr %15, align 8
  %40 = getelementptr inbounds nuw %struct._tvbparse_wanted_t, ptr %39, i32 0, i32 8
  store ptr %38, ptr %40, align 8
  %41 = load ptr, ptr %14, align 8
  %42 = load ptr, ptr %15, align 8
  %43 = getelementptr inbounds nuw %struct._tvbparse_wanted_t, ptr %42, i32 0, i32 2
  store ptr %41, ptr %43, align 8
  %44 = load ptr, ptr %15, align 8
  call void @llvm.lifetime.end.p0(i64 8, ptr %15) #11
  ret ptr %44
}