; Function Attrs: null_pointer_is_valid sspstrong uwtable
define noalias noundef ptr @tvbparse_some(i32 noundef %0, i32 noundef %1, i32 noundef %2, ptr noundef %3, ptr noundef %4, ptr noundef %5, ptr noundef %6) local_unnamed_addr #0 {
  %8 = tail call ptr @wmem_epan_scope()
  %9 = tail call noalias dereferenceable_or_null(80) ptr @wmem_alloc0(ptr noundef %8, i64 noundef 80) #11
  %10 = getelementptr inbounds nuw i8, ptr %9, i64 8
  store ptr @cond_some, ptr %10, align 8
  store i32 %0, ptr %9, align 8
  %11 = getelementptr inbounds nuw i8, ptr %9, i64 44
  store i32 %1, ptr %11, align 4
  %12 = getelementptr inbounds nuw i8, ptr %9, i64 48
  store i32 %2, ptr %12, align 8
  %13 = getelementptr inbounds nuw i8, ptr %9, i64 56
  store ptr %3, ptr %13, align 8
  %14 = getelementptr inbounds nuw i8, ptr %9, i64 64
  store ptr %4, ptr %14, align 8
  %15 = getelementptr inbounds nuw i8, ptr %9, i64 72
  store ptr %5, ptr %15, align 8
  %16 = getelementptr inbounds nuw i8, ptr %9, i64 16
  store ptr %6, ptr %16, align 8
  ret ptr %9
}